; Function Attrs: mustprogress nounwind uwtable
define dso_local void @_ZNK5clang4ento14SymbolicRegion12dumpToStreamERN4llvm11raw_ostreamE(ptr nocapture noundef nonnull readonly align 8 dereferenceable(64) %0, ptr noundef nonnull align 8 dereferenceable(48) %1) unnamed_addr #3 align 2 {
  %3 = getelementptr inbounds nuw i8, ptr %0, i64 48
  %4 = load ptr, ptr %3, align 8
  %5 = getelementptr inbounds nuw i8, ptr %4, i64 16
  %6 = load i32, ptr %5, align 8
  %7 = icmp eq i32 %6, 5
  br i1 %7, label %8, label %_ZN4llvm11raw_ostreamlsEPKc.exit

8:                                                ; preds = %2
  %9 = getelementptr inbounds nuw i8, ptr %1, i64 24
  %10 = load ptr, ptr %9, align 8
  %11 = getelementptr inbounds nuw i8, ptr %1, i64 32
  %12 = load ptr, ptr %11, align 8
  %13 = ptrtoint ptr %10 to i64
  %14 = ptrtoint ptr %12 to i64
  %15 = sub i64 %13, %14
  %16 = icmp ult i64 %15, 4
  br i1 %16, label %17, label %19

17:                                               ; preds = %8
  %18 = tail call noundef nonnull align 8 dereferenceable(48) ptr @_ZN4llvm11raw_ostream5writeEPKcm(ptr noundef nonnull align 8 dereferenceable(48) %1, ptr noundef nonnull @.str.23, i64 noundef 4) #20
  br label %_ZN4llvm11raw_ostreamlsEPKc.exit

19:                                               ; preds = %8
  store i32 1885431112, ptr %12, align 1
  %20 = load ptr, ptr %11, align 8
  %21 = getelementptr inbounds i8, ptr %20, i64 4
  store ptr %21, ptr %11, align 8
  br label %_ZN4llvm11raw_ostreamlsEPKc.exit

_ZN4llvm11raw_ostreamlsEPKc.exit:                 ; preds = %19, %17, %2
  %22 = getelementptr inbounds nuw i8, ptr %1, i64 24
  %23 = load ptr, ptr %22, align 8
  %24 = getelementptr inbounds nuw i8, ptr %1, i64 32
  %25 = load ptr, ptr %24, align 8
  %26 = ptrtoint ptr %23 to i64
  %27 = ptrtoint ptr %25 to i64
  %28 = sub i64 %26, %27
  %29 = icmp ult i64 %28, 10
  br i1 %29, label %30, label %32

30:                                               ; preds = %_ZN4llvm11raw_ostreamlsEPKc.exit
  %31 = tail call noundef nonnull align 8 dereferenceable(48) ptr @_ZN4llvm11raw_ostream5writeEPKcm(ptr noundef nonnull align 8 dereferenceable(48) %1, ptr noundef nonnull @.str.24, i64 noundef 10) #20
  br label %_ZN4llvm11raw_ostreamlsEPKc.exit5

32:                                               ; preds = %_ZN4llvm11raw_ostreamlsEPKc.exit
  tail call void @llvm.memcpy.p0.p0.i64(ptr noundef nonnull align 1 dereferenceable(10) %25, ptr noundef nonnull align 1 dereferenceable(10) @.str.24, i64 10, i1 false)
  %33 = load ptr, ptr %24, align 8
  %34 = getelementptr inbounds i8, ptr %33, i64 10
  store ptr %34, ptr %24, align 8
  br label %_ZN4llvm11raw_ostreamlsEPKc.exit5

_ZN4llvm11raw_ostreamlsEPKc.exit5:                ; preds = %30, %32
  %.0.i.i4 = phi ptr [ %31, %30 ], [ %1, %32 ]
  %35 = getelementptr inbounds nuw i8, ptr %0, i64 56
  %36 = load ptr, ptr %35, align 8
  %37 = load ptr, ptr %36, align 8
  %38 = getelementptr inbounds i8, ptr %37, i64 32
  %39 = load ptr, ptr %38, align 8
  tail call void %39(ptr noundef nonnull align 8 dereferenceable(24) %36, ptr noundef nonnull align 8 dereferenceable(48) %.0.i.i4) #20
  %40 = getelementptr inbounds nuw i8, ptr %.0.i.i4, i64 32
  %41 = load ptr, ptr %40, align 8
  %42 = getelementptr inbounds nuw i8, ptr %.0.i.i4, i64 24
  %43 = load ptr, ptr %42, align 8
  %.not.i = icmp ult ptr %41, %43
  br i1 %.not.i, label %46, label %44

44:                                               ; preds = %_ZN4llvm11raw_ostreamlsEPKc.exit5
  %45 = tail call noundef nonnull align 8 dereferenceable(48) ptr @_ZN4llvm11raw_ostream5writeEh(ptr noundef nonnull align 8 dereferenceable(48) %.0.i.i4, i8 noundef zeroext 125) #20
  br label %_ZN4llvm11raw_ostreamlsEc.exit

46:                                               ; preds = %_ZN4llvm11raw_ostreamlsEPKc.exit5
  %47 = getelementptr inbounds i8, ptr %41, i64 1
  store ptr %47, ptr %40, align 8
  store i8 125, ptr %41, align 1
  br label %_ZN4llvm11raw_ostreamlsEc.exit

_ZN4llvm11raw_ostreamlsEc.exit:                   ; preds = %44, %46
  ret void
}